
Discarded input sections

 .text          0x00000000        0x0 ..\obj\startup_coide.o
 .data          0x00000000        0x0 ..\obj\startup_coide.o
 .bss           0x00000000        0x0 ..\obj\startup_coide.o
 .text          0x00000000        0x0 ..\obj\xdebug.o
 .data          0x00000000        0x0 ..\obj\xdebug.o
 .bss           0x00000000        0x0 ..\obj\xdebug.o
 .debug_line    0x00000000        0x0 ..\obj\xdebug.o
 .debug_str     0x00000000        0x0 ..\obj\xdebug.o
 .comment       0x00000000       0x71 ..\obj\xdebug.o
 .ARM.attributes
                0x00000000       0x33 ..\obj\xdebug.o
 .text          0x00000000        0x0 ..\obj\xcore.o
 .data          0x00000000        0x0 ..\obj\xcore.o
 .bss           0x00000000        0x0 ..\obj\xcore.o
 .rodata        0x00000000       0x7c ..\obj\xcore.o
 .text.IntDefaultHandler
                0x00000000        0x8 ..\obj\xcore.o
 .text.xIntMasterEnable
                0x00000000       0x10 ..\obj\xcore.o
 .text.xIntMasterDisable
                0x00000000       0x10 ..\obj\xcore.o
 .text.xIntPriorityGroupingSet
                0x00000000       0x30 ..\obj\xcore.o
 .text.xIntPriorityGroupingGet
                0x00000000       0x48 ..\obj\xcore.o
 .text.xIntPrioritySet
                0x00000000      0x1e4 ..\obj\xcore.o
 .text.xIntPriorityGet
                0x00000000       0xa4 ..\obj\xcore.o
 .text.xIntEnable
                0x00000000      0x1c8 ..\obj\xcore.o
 .text.xIntDisable
                0x00000000      0x1c0 ..\obj\xcore.o
 .text.xIntPendSet
                0x00000000      0x1a8 ..\obj\xcore.o
 .text.xIntPendClear
                0x00000000      0x194 ..\obj\xcore.o
 .text.xIntPriorityMaskSet
                0x00000000       0x14 ..\obj\xcore.o
 .text.xIntPriorityMaskGet
                0x00000000       0x10 ..\obj\xcore.o
 .text.xSysTickEnable
                0x00000000       0x1c ..\obj\xcore.o
 .text.xSysTickDisable
                0x00000000       0x1c ..\obj\xcore.o
 .text.xSysTickIntEnable
                0x00000000       0x1c ..\obj\xcore.o
 .text.xSysTickIntDisable
                0x00000000       0x1c ..\obj\xcore.o
 .text.xSysTickPeriodSet
                0x00000000       0x20 ..\obj\xcore.o
 .text.xSysTickPeriodGet
                0x00000000       0x18 ..\obj\xcore.o
 .text.xSysTickValueGet
                0x00000000       0x18 ..\obj\xcore.o
 .debug_info    0x00000000      0x30d ..\obj\xcore.o
 .debug_abbrev  0x00000000      0x122 ..\obj\xcore.o
 .debug_aranges
                0x00000000       0xb8 ..\obj\xcore.o
 .debug_ranges  0x00000000       0xa8 ..\obj\xcore.o
 .debug_line    0x00000000      0x36e ..\obj\xcore.o
 .debug_str     0x00000000      0x2c0 ..\obj\xcore.o
 .comment       0x00000000       0x71 ..\obj\xcore.o
 .ARM.attributes
                0x00000000       0x33 ..\obj\xcore.o
 .debug_frame   0x00000000      0x228 ..\obj\xcore.o
 .text          0x00000000        0x0 ..\obj\xgpio.o
 .data          0x00000000        0x0 ..\obj\xgpio.o
 .rodata        0x00000000        0x8 ..\obj\xgpio.o
 .text.GPIODirModeSet
                0x00000000       0x94 ..\obj\xgpio.o
 .text.xGPIODirModeSet
                0x00000000       0x4c ..\obj\xgpio.o
 .text.GPIODirModeGet
                0x00000000       0x5c ..\obj\xgpio.o
 .text.xGPIODirModeGet
                0x00000000       0x44 ..\obj\xgpio.o
 .text.GPIOPinIntEnable
                0x00000000      0x114 ..\obj\xgpio.o
 .text.GPIOPinIntDisable
                0x00000000       0x28 ..\obj\xgpio.o
 .text.GPIOPinIntCallbackInit
                0x00000000       0x78 ..\obj\xgpio.o
 .text.GPIOPinIntStatus
                0x00000000       0x18 ..\obj\xgpio.o
 .text.GPIOPinIntClear
                0x00000000       0x24 ..\obj\xgpio.o
 .text.GPIOPinRead
                0x00000000       0x20 ..\obj\xgpio.o
 .text.GPIOPortRead
                0x00000000       0x1c ..\obj\xgpio.o
 .text.GPIOPinWrite
                0x00000000       0x44 ..\obj\xgpio.o
 .text.GPIOPortWrite
                0x00000000       0x1c ..\obj\xgpio.o
 .text.GPIOPinSet
                0x00000000       0x1c ..\obj\xgpio.o
 .text.GPIOPinReset
                0x00000000       0x1c ..\obj\xgpio.o
 .text.GPIOPinLockConfig
                0x00000000       0x64 ..\obj\xgpio.o
 .text.GPIOPinConfigure
                0x00000000       0xc4 ..\obj\xgpio.o
 .text.GPIOPinToPeripheralId
                0x00000000       0x90 ..\obj\xgpio.o
 .text          0x00000000        0x0 ..\obj\system_stm32f10x.o
 .data          0x00000000       0x14 ..\obj\system_stm32f10x.o
 .bss           0x00000000        0x0 ..\obj\system_stm32f10x.o
 .text.SystemCoreClockUpdate
                0x00000000       0xd8 ..\obj\system_stm32f10x.o
 .text          0x00000000        0x0 ..\obj\startup_stm32f10x_hd.o
 .data          0x00000000        0x0 ..\obj\startup_stm32f10x_hd.o
 .bss           0x00000000        0x0 ..\obj\startup_stm32f10x_hd.o
 .co_stack      0x00000000      0x400 ..\obj\startup_stm32f10x_hd.o
 .text          0x00000000        0x0 ..\obj\main.o
 .data          0x00000000        0x0 ..\obj\main.o
 .bss           0x00000000        0x0 ..\obj\main.o
 .text.Blinky   0x00000000       0x80 ..\obj\main.o
 .debug_info    0x00000000       0x57 ..\obj\main.o
 .debug_abbrev  0x00000000       0x4d ..\obj\main.o
 .debug_aranges
                0x00000000       0x20 ..\obj\main.o
 .debug_ranges  0x00000000       0x10 ..\obj\main.o
 .debug_line    0x00000000       0x86 ..\obj\main.o
 .debug_str     0x00000000       0xd8 ..\obj\main.o
 .comment       0x00000000       0x71 ..\obj\main.o
 .ARM.attributes
                0x00000000       0x33 ..\obj\main.o
 .debug_frame   0x00000000       0x30 ..\obj\main.o
 .text          0x00000000        0x0 ..\obj\printf.o
 .data          0x00000000      0x430 ..\obj\printf.o
 .bss           0x00000000        0x0 ..\obj\printf.o
 .text.PrintChar
                0x00000000       0x14 ..\obj\printf.o
 .text.PutChar  0x00000000       0x20 ..\obj\printf.o
 .text.PutString
                0x00000000       0x3c ..\obj\printf.o
 .text.PutUnsignedInt
                0x00000000       0xa0 ..\obj\printf.o
 .text.PutSignedInt
                0x00000000       0xfc ..\obj\printf.o
 .text.PutHexa  0x00000000       0xd4 ..\obj\printf.o
 .text.vsnprintf
                0x00000000      0x254 ..\obj\printf.o
 .text.snprintf
                0x00000000       0x30 ..\obj\printf.o
 .text.vsprintf
                0x00000000       0x24 ..\obj\printf.o
 .rodata        0x00000000       0x24 ..\obj\printf.o
 .text.vfprintf
                0x00000000       0x68 ..\obj\printf.o
 .text.vprintf  0x00000000       0x28 ..\obj\printf.o
 .text.fprintf  0x00000000       0x2c ..\obj\printf.o
 .text.printf   0x00000000       0x28 ..\obj\printf.o
 .text.sprintf  0x00000000       0x2c ..\obj\printf.o
 .text.puts     0x00000000       0x24 ..\obj\printf.o
 .text.fputc    0x00000000       0x40 ..\obj\printf.o
 .text.fputs    0x00000000       0x48 ..\obj\printf.o
 .debug_info    0x00000000      0xe38 ..\obj\printf.o
 .debug_abbrev  0x00000000      0x27e ..\obj\printf.o
 .debug_aranges
                0x00000000       0xa0 ..\obj\printf.o
 .debug_ranges  0x00000000       0x90 ..\obj\printf.o
 .debug_line    0x00000000      0x39e ..\obj\printf.o
 .debug_str     0x00000000      0x679 ..\obj\printf.o
 .comment       0x00000000       0x71 ..\obj\printf.o
 .ARM.attributes
                0x00000000       0x33 ..\obj\printf.o
 .debug_frame   0x00000000      0x244 ..\obj\printf.o
 .text          0x00000000        0x0 ..\obj\xsysctl.o
 .data          0x00000000       0x18 ..\obj\xsysctl.o
 .rodata        0x00000000      0x1f0 ..\obj\xsysctl.o
 .text.RCCIntCallbackInit
                0x00000000       0x1c ..\obj\xsysctl.o
 .text.SysCtlDelay
                0x00000000        0x8 ..\obj\xsysctl.o
 .text.SysCtlPeripheralReset
                0x00000000       0x70 ..\obj\xsysctl.o
 .text.SysCtlPeripheralEnable
                0x00000000       0x40 ..\obj\xsysctl.o
 .text.SysCtlPeripheralDisable
                0x00000000       0x44 ..\obj\xsysctl.o
 .text.xSysCtlPeripheralEnable2
                0x00000000       0x64 ..\obj\xsysctl.o
 .text.xSysCtlPeripheralDisable2
                0x00000000       0x64 ..\obj\xsysctl.o
 .text.xSysCtlPeripheralReset2
                0x00000000       0x64 ..\obj\xsysctl.o
 .text.xSysCtlPeripheraIntNumGet
                0x00000000       0x64 ..\obj\xsysctl.o
 .text.SysCtlClockSet
                0x00000000      0x424 ..\obj\xsysctl.o
 .text.SysCtlIntEnable
                0x00000000       0x24 ..\obj\xsysctl.o
 .text.SysCtlIntDisable
                0x00000000       0x28 ..\obj\xsysctl.o
 .text.SysCtlIntFlagClear
                0x00000000       0x24 ..\obj\xsysctl.o
 .text.SysCtlIntFlagGet
                0x00000000       0x18 ..\obj\xsysctl.o
 .text.SysCtlResetFlagGet
                0x00000000       0x1c ..\obj\xsysctl.o
 .text.SysCtlResetFlagClear
                0x00000000       0x1c ..\obj\xsysctl.o
 .text.SysCtlLSIConfig
                0x00000000       0x40 ..\obj\xsysctl.o
 .text.SysCtlLSEConfig
                0x00000000       0x3c ..\obj\xsysctl.o
 .text.SysCtlPeripheralClockSourceSet
                0x00000000      0x188 ..\obj\xsysctl.o
 .text.SysCtlReset
                0x00000000       0x14 ..\obj\xsysctl.o
 .text.SysCtlSleep
                0x00000000        0xc ..\obj\xsysctl.o
 .text.SysCtlBackupDomainReset
                0x00000000       0x1c ..\obj\xsysctl.o
 .text.SysCtlHClockGet
                0x00000000       0xec ..\obj\xsysctl.o
 .text.SysCtlAPB1ClockGet
                0x00000000       0x40 ..\obj\xsysctl.o
 .text.SysCtlAPB2ClockGet
                0x00000000       0x40 ..\obj\xsysctl.o
 .text.SysCtlBackupAccessEnable
                0x00000000       0x1c ..\obj\xsysctl.o
 .text.SysCtlBackupAccessDisable
                0x00000000       0x1c ..\obj\xsysctl.o
 .text.SysCtlPVDLevelConfig
                0x00000000       0x30 ..\obj\xsysctl.o
 .text.SysCtlWakeUpPinEnable
                0x00000000       0x1c ..\obj\xsysctl.o
 .text.SysCtlWakeUpPinDisable
                0x00000000       0x1c ..\obj\xsysctl.o
 .text.SysCtlStopModeConfig
                0x00000000       0x54 ..\obj\xsysctl.o
 .text.SysCtlEnterStandbyMode
                0x00000000       0x38 ..\obj\xsysctl.o
 .text.SysCtlFlagStatusGet
                0x00000000       0x1c ..\obj\xsysctl.o
 .text.SysCtlFlagStatusClear
                0x00000000       0x28 ..\obj\xsysctl.o
 .text          0x00000000        0x0 ..\obj\xspi.o
 .data          0x00000000        0x0 ..\obj\xspi.o
 .text.xSPISSSet
                0x00000000       0x74 ..\obj\xspi.o
 .text.SPIConfig
                0x00000000       0xc8 ..\obj\xspi.o
 .text.SPISingleDataReadWrite
                0x00000000       0x48 ..\obj\xspi.o
 .text.SPIDataRead
                0x00000000       0x60 ..\obj\xspi.o
 .text.SPIDataWrite
                0x00000000       0x58 ..\obj\xspi.o
 .text.SPIDataPut
                0x00000000       0x2c ..\obj\xspi.o
 .text.SPIDataPutNonBlocking
                0x00000000       0x34 ..\obj\xspi.o
 .text.SPIDataGet
                0x00000000       0x30 ..\obj\xspi.o
 .text.SPIDataGetNonBlocking
                0x00000000       0x34 ..\obj\xspi.o
 .text.SPIIntEnable
                0x00000000       0x24 ..\obj\xspi.o
 .text.SPIIntCallbackInit
                0x00000000       0x54 ..\obj\xspi.o
 .text.SPIIntDisable
                0x00000000       0x28 ..\obj\xspi.o
 .text.SPIIntFlagGet
                0x00000000       0x1c ..\obj\xspi.o
 .text.SPIIntFlagClear
                0x00000000       0x24 ..\obj\xspi.o
 .text.SPIIsBusy
                0x00000000       0x28 ..\obj\xspi.o
 .text.SPIDMAEnable
                0x00000000       0x34 ..\obj\xspi.o
 .text.SPIDMADisable
                0x00000000       0x28 ..\obj\xspi.o
 .text.SPIEnble
                0x00000000       0x20 ..\obj\xspi.o
 .text.SPIDisble
                0x00000000       0x20 ..\obj\xspi.o
 .text.SPISSIConfig
                0x00000000       0x2c ..\obj\xspi.o
 .text.SPISSOutputConfig
                0x00000000       0x34 ..\obj\xspi.o
 .text.SPISSModeConfig
                0x00000000       0x2c ..\obj\xspi.o
 .text.SPIIsTxEmpty
                0x00000000       0x28 ..\obj\xspi.o
 .text.SPIIsRxNotEmpty
                0x00000000       0x28 ..\obj\xspi.o
 .text.SPICRCPolSet
                0x00000000       0x1c ..\obj\xspi.o
 .text.SPICRCPolGet
                0x00000000       0x1c ..\obj\xspi.o
 .text.SPITXCRCGet
                0x00000000       0x1c ..\obj\xspi.o
 .text.SPIRxCRCGet
                0x00000000       0x1c ..\obj\xspi.o
 .text.SPICRCEnble
                0x00000000       0x20 ..\obj\xspi.o
 .text.SPICRCDisble
                0x00000000       0x20 ..\obj\xspi.o
 .text          0x00000000        0x0 ..\obj\xi2c.o
 .data          0x00000000        0x0 ..\obj\xi2c.o
 .text.I2CStartSend
                0x00000000       0x20 ..\obj\xi2c.o
 .text.I2CStopSend
                0x00000000       0x20 ..\obj\xi2c.o
 .text.I2CByteSend
                0x00000000       0x20 ..\obj\xi2c.o
 .text.I2CEventCheck
                0x00000000       0x48 ..\obj\xi2c.o
 .text.I2CMasterInit
                0x00000000       0xfc ..\obj\xi2c.o
 .text.I2CSlaveInit
                0x00000000       0x50 ..\obj\xi2c.o
 .text.I2CEnable
                0x00000000       0x2c ..\obj\xi2c.o
 .text.I2CDisable
                0x00000000       0x20 ..\obj\xi2c.o
 .text.I2CMasterEnable
                0x00000000       0x2c ..\obj\xi2c.o
 .text.I2CMasterDisable
                0x00000000       0x20 ..\obj\xi2c.o
 .text.I2CIntEnable
                0x00000000       0x1c ..\obj\xi2c.o
 .text.I2CIntDisable
                0x00000000       0x28 ..\obj\xi2c.o
 .text.I2CIntCallbackInit
                0x00000000       0x40 ..\obj\xi2c.o
 .text.I2CDMAEnable
                0x00000000       0x44 ..\obj\xi2c.o
 .text.I2CDMADisable
                0x00000000       0x34 ..\obj\xi2c.o
 .text.I2COwnAddress2Config
                0x00000000       0x28 ..\obj\xi2c.o
 .text.I2CSoftwareResetEnable
                0x00000000       0x40 ..\obj\xi2c.o
 .text.I2CSoftwareResetDisable
                0x00000000       0x20 ..\obj\xi2c.o
 .text.I2CNACKPositionConfig
                0x00000000       0x2c ..\obj\xi2c.o
 .text.I2CPECPositionConfig
                0x00000000       0x2c ..\obj\xi2c.o
 .text.I2CPECConfig
                0x00000000       0x2c ..\obj\xi2c.o
 .text.I2CPECGet
                0x00000000       0x24 ..\obj\xi2c.o
 .text.I2CStretchClockEnable
                0x00000000       0x20 ..\obj\xi2c.o
 .text.I2CStretchClockDisable
                0x00000000       0x20 ..\obj\xi2c.o
 .text.I2CStatusGet
                0x00000000       0x34 ..\obj\xi2c.o
 .text.I2CBusBusy
                0x00000000       0x28 ..\obj\xi2c.o
 .text.I2CMasterErr
                0x00000000       0x30 ..\obj\xi2c.o
 .text.I2CDataPut
                0x00000000       0x20 ..\obj\xi2c.o
 .text.I2CDataGet
                0x00000000       0x1c ..\obj\xi2c.o
 .text.I2CMasterWriteRequestS1
                0x00000000       0xbc ..\obj\xi2c.o
 .text.I2CMasterWriteRequestS2
                0x00000000       0x50 ..\obj\xi2c.o
 .text.I2CMasterWriteS1
                0x00000000       0x5c ..\obj\xi2c.o
 .text.I2CMasterWriteS2
                0x00000000       0x5c ..\obj\xi2c.o
 .text.I2CMasterWriteBufS1
                0x00000000       0xec ..\obj\xi2c.o
 .text.I2CMasterWriteBufS2
                0x00000000       0xa0 ..\obj\xi2c.o
 .text.I2CMasterReadRequestS1
                0x00000000       0xc4 ..\obj\xi2c.o
 .text.I2CMasterReadRequestS2
                0x00000000       0x50 ..\obj\xi2c.o
 .text.I2CMasterReadLastRequestS2
                0x00000000       0x20 ..\obj\xi2c.o
 .text.I2CMasterReadS1
                0x00000000       0x84 ..\obj\xi2c.o
 .text.I2CMasterReadS2
                0x00000000       0x7c ..\obj\xi2c.o
 .text.I2CMasterReadBufS1
                0x00000000      0x138 ..\obj\xi2c.o
 .text.I2CMasterReadBufS2
                0x00000000       0xc0 ..\obj\xi2c.o
 .text          0x00000000        0x0 ..\obj\syscalls.o
 .data          0x00000000        0x0 ..\obj\syscalls.o
 .bss           0x00000000        0x4 ..\obj\syscalls.o
 .text._sbrk    0x00000000       0x40 ..\obj\syscalls.o
 .text.link     0x00000000       0x1c ..\obj\syscalls.o
 .text._close   0x00000000       0x18 ..\obj\syscalls.o
 .text._fstat   0x00000000       0x20 ..\obj\syscalls.o
 .text._isatty  0x00000000       0x18 ..\obj\syscalls.o
 .text._lseek   0x00000000       0x1c ..\obj\syscalls.o
 .text._read    0x00000000       0x1c ..\obj\syscalls.o
 .text._write   0x00000000       0x1c ..\obj\syscalls.o
 .text.abort    0x00000000        0x8 ..\obj\syscalls.o
 .debug_info    0x00000000      0x3ee ..\obj\syscalls.o
 .debug_abbrev  0x00000000       0xe2 ..\obj\syscalls.o
 .debug_aranges
                0x00000000       0x60 ..\obj\syscalls.o
 .debug_ranges  0x00000000       0x50 ..\obj\syscalls.o
 .debug_line    0x00000000      0x179 ..\obj\syscalls.o
 .debug_str     0x00000000      0x2ea ..\obj\syscalls.o
 .comment       0x00000000       0x71 ..\obj\syscalls.o
 .ARM.attributes
                0x00000000       0x33 ..\obj\syscalls.o
 .debug_frame   0x00000000      0x108 ..\obj\syscalls.o

Memory Configuration

Name             Origin             Length             Attributes
rom              0x08000000         0x00080000         xr
ram              0x20000000         0x00010000         xrw
*default*        0x00000000         0xffffffff

Linker script and memory map

                0x20010000                _eram = 0x20010000

.text           0x08000000      0xba4
 *(.isr_vector)
 .isr_vector    0x08000000      0x154 ..\obj\startup_coide.o
                0x08000000                g_pfnVectors
 .isr_vector    0x08000154      0x134 ..\obj\startup_stm32f10x_hd.o
 *(.text*)
 .text.Default_ResetHandler
                0x08000288       0x60 ..\obj\startup_coide.o
                0x08000288                ResetHandler
                0x08000288                Default_ResetHandler
 .text.DefaultIntHandler
                0x080002e8        0x8 ..\obj\startup_coide.o
                0x080002e8                TIM7IntHandler
                0x080002e8                ETHIntHandler
                0x080002e8                OTGFSWKUPIntHandler
                0x080002e8                TIM1UPTIM10IntHandler
                0x080002e8                TIM1CCIntHandler
                0x080002e8                TIM6IntHandler
                0x080002e8                DMA1Channel7IntHandler
                0x080002e8                TIM3IntHandler
                0x080002e8                DMA1Channel2IntHandler
                0x080002e8                CAN1RX0IntHandler
                0x080002e8                TIM8CCIntHandler
                0x080002e8                FSMCIntHandler
                0x080002e8                ETHWKUPIntHandler
                0x080002e8                ADC12IntHandler
                0x080002e8                WWDGIntHandler
                0x080002e8                PVDIntHandler
                0x080002e8                DMA1Channel6IntHandler
                0x080002e8                DMA2Channel1IntHandler
                0x080002e8                CAN2SCEIntHandler
                0x080002e8                CAN1TXIntHandler
                0x080002e8                DMA1Channel5IntHandler
                0x080002e8                RTCIntHandler
                0x080002e8                RTCAlarmIntHandler
                0x080002e8                TIM8TRGCOMTIM14IntHandler
                0x080002e8                HardFaultIntHandler
                0x080002e8                PendSVIntHandler
                0x080002e8                DMA2Channel2IntHandler
                0x080002e8                ADC3IntHandler
                0x080002e8                SysTickIntHandler
                0x080002e8                BusFaultIntHandler
                0x080002e8                NMIIntHandler
                0x080002e8                TIM2IntHandler
                0x080002e8                CAN2RX0IntHandler
                0x080002e8                USART1IntHandler
                0x080002e8                FLASHIntHandler
                0x080002e8                TAMPERIntHandler
                0x080002e8                TIM5IntHandler
                0x080002e8                SDIOIntHandler
                0x080002e8                TIM1BRKTIM9IntHandler
                0x080002e8                CAN2TXIntHandler
                0x080002e8                CAN1SCEIntHandler
                0x080002e8                USART3IntHandler
                0x080002e8                I2C1ERIntHandler
                0x080002e8                DMA2Channel3IntHandler
                0x080002e8                CAN2RX1IntHandler
                0x080002e8                DMA2Channel5IntHandler
                0x080002e8                UsageFaultIntHandler
                0x080002e8                MemManageIntHandler
                0x080002e8                CAN1RX1IntHandler
                0x080002e8                TIM1TRGCOMTIM11IntHandler
                0x080002e8                UART4IntHandler
                0x080002e8                TIM8UPTIM13IntHandler
                0x080002e8                SVCIntHandler
                0x080002e8                USART2IntHandler
                0x080002e8                DebugMonIntHandler
                0x080002e8                DMA1Channel1IntHandler
                0x080002e8                DMA1Channel3IntHandler
                0x080002e8                I2C2ERIntHandler
                0x080002e8                UART5IntHandler
                0x080002e8                OTGFSIntHandler
                0x080002e8                DMA2Channel4IntHandler
                0x080002e8                TIM8BRKTIM12IntHandler
                0x080002e8                TIM4IntHandler
                0x080002e8                DMA1Channel4IntHandler
 .text.EXTI0IntHandler
                0x080002f0       0x68 ..\obj\xgpio.o
                0x080002f0                EXTI0IntHandler
 .text.EXTI1IntHandler
                0x08000358       0x68 ..\obj\xgpio.o
                0x08000358                EXTI1IntHandler
 .text.EXTI2IntHandler
                0x080003c0       0x68 ..\obj\xgpio.o
                0x080003c0                EXTI2IntHandler
 .text.EXTI3IntHandler
                0x08000428       0x68 ..\obj\xgpio.o
                0x08000428                EXTI3IntHandler
 .text.EXTI4IntHandler
                0x08000490       0x68 ..\obj\xgpio.o
                0x08000490                EXTI4IntHandler
 .text.EXTI95IntHandler
                0x080004f8       0xbc ..\obj\xgpio.o
                0x080004f8                EXTI95IntHandler
 .text.EXTI1510IntHandler
                0x080005b4       0xcc ..\obj\xgpio.o
                0x080005b4                EXTI1510IntHandler
 .text.SystemInit
                0x08000680       0x68 ..\obj\system_stm32f10x.o
                0x08000680                SystemInit
 .text.SetSysClock
                0x080006e8        0xc ..\obj\system_stm32f10x.o
 .text.SetSysClockTo72
                0x080006f4      0x100 ..\obj\system_stm32f10x.o
 .text.Default_Reset_Handler
                0x080007f4       0x60 ..\obj\startup_stm32f10x_hd.o
                0x080007f4                Default_Reset_Handler
                0x080007f4                Reset_Handler
 .text.Default_Handler
                0x08000854        0x8 ..\obj\startup_stm32f10x_hd.o
                0x08000854                EXTI2_IRQHandler
                0x08000854                TIM8_TRG_COM_IRQHandler
                0x08000854                TIM8_CC_IRQHandler
                0x08000854                DebugMon_Handler
                0x08000854                TIM1_CC_IRQHandler
                0x08000854                HardFault_Handler
                0x08000854                TIM6_IRQHandler
                0x08000854                SysTick_Handler
                0x08000854                PVD_IRQHandler
                0x08000854                SDIO_IRQHandler
                0x08000854                PendSV_Handler
                0x08000854                NMI_Handler
                0x08000854                EXTI3_IRQHandler
                0x08000854                EXTI0_IRQHandler
                0x08000854                I2C2_EV_IRQHandler
                0x08000854                UsageFault_Handler
                0x08000854                ADC1_2_IRQHandler
                0x08000854                SPI1_IRQHandler
                0x08000854                TAMPER_IRQHandler
                0x08000854                TIM8_UP_IRQHandler
                0x08000854                DMA2_Channel2_IRQHandler
                0x08000854                DMA1_Channel4_IRQHandler
                0x08000854                USART3_IRQHandler
                0x08000854                RTC_IRQHandler
                0x08000854                DMA1_Channel7_IRQHandler
                0x08000854                CAN1_RX1_IRQHandler
                0x08000854                UART5_IRQHandler
                0x08000854                ADC3_IRQHandler
                0x08000854                TIM4_IRQHandler
                0x08000854                DMA2_Channel1_IRQHandler
                0x08000854                I2C1_EV_IRQHandler
                0x08000854                DMA1_Channel6_IRQHandler
                0x08000854                UART4_IRQHandler
                0x08000854                TIM3_IRQHandler
                0x08000854                RCC_IRQHandler
                0x08000854                TIM1_TRG_COM_IRQHandler
                0x08000854                DMA1_Channel1_IRQHandler
                0x08000854                EXTI15_10_IRQHandler
                0x08000854                TIM7_IRQHandler
                0x08000854                TIM5_IRQHandler
                0x08000854                EXTI9_5_IRQHandler
                0x08000854                SPI2_IRQHandler
                0x08000854                MemManage_Handler
                0x08000854                SVC_Handler
                0x08000854                DMA1_Channel5_IRQHandler
                0x08000854                EXTI4_IRQHandler
                0x08000854                USB_LP_CAN1_RX0_IRQHandler
                0x08000854                USB_HP_CAN1_TX_IRQHandler
                0x08000854                DMA1_Channel3_IRQHandler
                0x08000854                FSMC_IRQHandler
                0x08000854                TIM1_UP_IRQHandler
                0x08000854                WWDG_IRQHandler
                0x08000854                TIM2_IRQHandler
                0x08000854                TIM1_BRK_IRQHandler
                0x08000854                EXTI1_IRQHandler
                0x08000854                RTCAlarm_IRQHandler
                0x08000854                DMA2_Channel4_5_IRQHandler
                0x08000854                USART2_IRQHandler
                0x08000854                I2C2_ER_IRQHandler
                0x08000854                DMA1_Channel2_IRQHandler
                0x08000854                TIM8_BRK_IRQHandler
                0x08000854                CAN1_SCE_IRQHandler
                0x08000854                FLASH_IRQHandler
                0x08000854                BusFault_Handler
                0x08000854                USART1_IRQHandler
                0x08000854                SPI3_IRQHandler
                0x08000854                I2C1_ER_IRQHandler
                0x08000854                USBWakeUp_IRQHandler
                0x08000854                DMA2_Channel3_IRQHandler
 .text.RCCIntHandler
                0x0800085c       0x30 ..\obj\xsysctl.o
                0x0800085c                RCCIntHandler
 .text.SPI1IntHandler
                0x0800088c       0x80 ..\obj\xspi.o
                0x0800088c                SPI1IntHandler
 .text.SPI2IntHandler
                0x0800090c       0x7c ..\obj\xspi.o
                0x0800090c                SPI2IntHandler
 .text.SPI3IntHandler
                0x08000988       0x7c ..\obj\xspi.o
                0x08000988                SPI3IntHandler
 .text.I2C1EVIntHandler
                0x08000a04       0xf0 ..\obj\xi2c.o
                0x08000a04                I2C1EVIntHandler
 .text.I2C2EVIntHandler
                0x08000af4       0x88 ..\obj\xi2c.o
                0x08000af4                I2C2EVIntHandler
 .text.I2CFlagStatusClear
                0x08000b7c       0x28 ..\obj\xi2c.o
                0x08000b7c                I2CFlagStatusClear
 *(.init)
 *(.fini)
 *crtbegin.o(.ctors)
 *crtbegin?.o(.ctors)
 *(EXCLUDE_FILE(*crtend.o *crtend?.o) .ctors)
 *(SORT(.ctors.*))
 *(.ctors)
 *crtbegin.o(.dtors)
 *crtbegin?.o(.dtors)
 *(EXCLUDE_FILE(*crtend.o *crtend?.o) .dtors)
 *(SORT(.dtors.*))
 *(.dtors)
 *(.rodata*)
 *(.eh_fram e*)

.glue_7         0x08000ba4        0x0
 .glue_7        0x00000000        0x0 linker stubs

.glue_7t        0x08000ba4        0x0
 .glue_7t       0x00000000        0x0 linker stubs

.vfp11_veneer   0x08000ba4        0x0
 .vfp11_veneer  0x00000000        0x0 linker stubs

.v4_bx          0x08000ba4        0x0
 .v4_bx         0x00000000        0x0 linker stubs

.iplt           0x08000ba4        0x0
 .iplt          0x00000000        0x0 ..\obj\startup_coide.o

.rel.dyn        0x08000ba4        0x0
 .rel.iplt      0x00000000        0x0 ..\obj\startup_coide.o

.ARM.extab
 *(.ARM.extab* .gnu.linkonce.armextab.*)
                0x08000ba4                __exidx_start = .

.ARM.exidx
 *(.ARM.exidx* .gnu.linkonce.armexidx.*)
                0x08000ba4                __exidx_end = .
                0x08000ba4                __etext = .
                0x08000ba4                _sidata = __etext

.data           0x20000000        0x0 load address 0x08000ba4
                0x20000000                __data_start__ = .
                0x20000000                _sdata = __data_start__
 *(vtable)
 *(.data*)
                0x20000000                . = ALIGN (0x4)
                0x20000000                PROVIDE (__preinit_array_start, .)
 *(.preinit_array)
                0x20000000                PROVIDE (__preinit_array_end, .)
                0x20000000                . = ALIGN (0x4)
                0x20000000                PROVIDE (__init_array_start, .)
 *(SORT(.init_array.*))
 *(.init_array)
                0x20000000                PROVIDE (__init_array_end, .)
                0x20000000                . = ALIGN (0x4)
                0x20000000                PROVIDE (__fini_array_start, .)
 *(SORT(.fini_array.*))
 *(.fini_array)
                0x20000000                PROVIDE (__fini_array_end, .)
 *(.jcr*)
                0x20000000                . = ALIGN (0x4)
                0x20000000                __data_end__ = .
                0x20000000                _edata = __data_end__

.igot.plt       0x20000000        0x0
 .igot.plt      0x00000000        0x0 ..\obj\startup_coide.o

.bss            0x20000000       0x58
                0x20000000                . = ALIGN (0x4)
                0x20000000                __bss_start__ = .
                0x20000000                _sbss = __bss_start__
 *(.bss*)
 .bss           0x20000000       0x40 ..\obj\xgpio.o
 .bss           0x20000040        0x4 ..\obj\xsysctl.o
 .bss           0x20000044        0xc ..\obj\xspi.o
 .bss           0x20000050        0x8 ..\obj\xi2c.o
 *(COMMON)
                0x20000058                . = ALIGN (0x4)
                0x20000058                __bss_end__ = .
                0x20000058                _ebss = __bss_end__

.heap           0x20000058        0x0
                0x20000058                __end__ = .
                0x20000058                _end = __end__
                0x20000058                end = __end__
 *(.heap*)
                0x20000058                __HeapLimit = .

.co_stack       0x20000058      0x400
                0x20000058                . = ALIGN (0x8)
 *(.co_stack .co_stack.*)
 .co_stack      0x20000058      0x400 ..\obj\startup_coide.o
                0x20000058                pulStack
                0x20010000                __StackTop = (ORIGIN (ram) + 0x10000)
                0x2000fc00                __StackLimit = (__StackTop - SIZEOF (.co_stack))
                0x20010000                PROVIDE (__stack, __StackTop)
                0x00000001                ASSERT ((__StackLimit >= __HeapLimit), region ram  overflowed with stack)
LOAD ..\obj\startup_coide.o
LOAD ..\obj\xdebug.o
LOAD ..\obj\xcore.o
LOAD ..\obj\xgpio.o
LOAD ..\obj\system_stm32f10x.o
LOAD ..\obj\startup_stm32f10x_hd.o
LOAD ..\obj\main.o
LOAD ..\obj\printf.o
LOAD ..\obj\xsysctl.o
LOAD ..\obj\xspi.o
LOAD ..\obj\xi2c.o
LOAD ..\obj\syscalls.o
START GROUP
LOAD c:/program files (x86)/gnu tools arm embedded/4.8 2013q4/bin/../lib/gcc/arm-none-eabi/4.8.3/armv7-m\libgcc.a
LOAD c:/program files (x86)/gnu tools arm embedded/4.8 2013q4/bin/../lib/gcc/arm-none-eabi/4.8.3/../../../../arm-none-eabi/lib/armv7-m\libg.a
LOAD c:/program files (x86)/gnu tools arm embedded/4.8 2013q4/bin/../lib/gcc/arm-none-eabi/4.8.3/../../../../arm-none-eabi/lib/armv7-m\libc.a
END GROUP
OUTPUT(software_rasterizer.elf elf32-littlearm)

.debug_info     0x00000000     0x283c
 .debug_info    0x00000000      0x102 ..\obj\startup_coide.o
 .debug_info    0x00000102      0x6fa ..\obj\xgpio.o
 .debug_info    0x000007fc      0x44d ..\obj\system_stm32f10x.o
 .debug_info    0x00000c49       0xe9 ..\obj\startup_stm32f10x_hd.o
 .debug_info    0x00000d32      0x754 ..\obj\xsysctl.o
 .debug_info    0x00001486      0x764 ..\obj\xspi.o
 .debug_info    0x00001bea      0xc52 ..\obj\xi2c.o

.debug_abbrev   0x00000000      0x868
 .debug_abbrev  0x00000000       0xa7 ..\obj\startup_coide.o
 .debug_abbrev  0x000000a7      0x177 ..\obj\xgpio.o
 .debug_abbrev  0x0000021e      0x14c ..\obj\system_stm32f10x.o
 .debug_abbrev  0x0000036a       0xa7 ..\obj\startup_stm32f10x_hd.o
 .debug_abbrev  0x00000411      0x1d1 ..\obj\xsysctl.o
 .debug_abbrev  0x000005e2      0x104 ..\obj\xspi.o
 .debug_abbrev  0x000006e6      0x182 ..\obj\xi2c.o

.debug_aranges  0x00000000      0x538
 .debug_aranges
                0x00000000       0x28 ..\obj\startup_coide.o
 .debug_aranges
                0x00000028       0xe0 ..\obj\xgpio.o
 .debug_aranges
                0x00000108       0x38 ..\obj\system_stm32f10x.o
 .debug_aranges
                0x00000140       0x28 ..\obj\startup_stm32f10x_hd.o
 .debug_aranges
                0x00000168      0x130 ..\obj\xsysctl.o
 .debug_aranges
                0x00000298      0x120 ..\obj\xspi.o
 .debug_aranges
                0x000003b8      0x180 ..\obj\xi2c.o

.debug_ranges   0x00000000      0x4c8
 .debug_ranges  0x00000000       0x18 ..\obj\startup_coide.o
 .debug_ranges  0x00000018       0xd0 ..\obj\xgpio.o
 .debug_ranges  0x000000e8       0x28 ..\obj\system_stm32f10x.o
 .debug_ranges  0x00000110       0x18 ..\obj\startup_stm32f10x_hd.o
 .debug_ranges  0x00000128      0x120 ..\obj\xsysctl.o
 .debug_ranges  0x00000248      0x110 ..\obj\xspi.o
 .debug_ranges  0x00000358      0x170 ..\obj\xi2c.o

.debug_line     0x00000000     0x14de
 .debug_line    0x00000000       0x96 ..\obj\startup_coide.o
 .debug_line    0x00000096      0x3e2 ..\obj\xgpio.o
 .debug_line    0x00000478      0x1b7 ..\obj\system_stm32f10x.o
 .debug_line    0x0000062f       0xab ..\obj\startup_stm32f10x_hd.o
 .debug_line    0x000006da      0x49f ..\obj\xsysctl.o
 .debug_line    0x00000b79      0x3ba ..\obj\xspi.o
 .debug_line    0x00000f33      0x5ab ..\obj\xi2c.o

.debug_str      0x00000000     0x1278
 .debug_str     0x00000000      0x131 ..\obj\startup_coide.o
                                0x143 (size before relaxing)
 .debug_str     0x00000131      0x2d2 ..\obj\xgpio.o
                                0x390 (size before relaxing)
 .debug_str     0x00000403      0x1e5 ..\obj\system_stm32f10x.o
                                0x2d6 (size before relaxing)
 .debug_str     0x000005e8       0x7e ..\obj\startup_stm32f10x_hd.o
                                0x150 (size before relaxing)
 .debug_str     0x00000666      0x4ea ..\obj\xsysctl.o
                                0x5a6 (size before relaxing)
 .debug_str     0x00000b50      0x2d1 ..\obj\xspi.o
                                0x3c3 (size before relaxing)
 .debug_str     0x00000e21      0x457 ..\obj\xi2c.o
                                0x54d (size before relaxing)

.comment        0x00000000       0x70
 .comment       0x00000000       0x70 ..\obj\startup_coide.o
                                 0x71 (size before relaxing)
 .comment       0x00000000       0x71 ..\obj\xgpio.o
 .comment       0x00000000       0x71 ..\obj\system_stm32f10x.o
 .comment       0x00000000       0x71 ..\obj\startup_stm32f10x_hd.o
 .comment       0x00000000       0x71 ..\obj\xsysctl.o
 .comment       0x00000000       0x71 ..\obj\xspi.o
 .comment       0x00000000       0x71 ..\obj\xi2c.o

.ARM.attributes
                0x00000000       0x33
 .ARM.attributes
                0x00000000       0x33 ..\obj\startup_coide.o
 .ARM.attributes
                0x00000033       0x33 ..\obj\xgpio.o
 .ARM.attributes
                0x00000066       0x33 ..\obj\system_stm32f10x.o
 .ARM.attributes
                0x00000099       0x33 ..\obj\startup_stm32f10x_hd.o
 .ARM.attributes
                0x000000cc       0x33 ..\obj\xsysctl.o
 .ARM.attributes
                0x000000ff       0x33 ..\obj\xspi.o
 .ARM.attributes
                0x00000132       0x33 ..\obj\xi2c.o

.debug_frame    0x00000000     0x10d0
 .debug_frame   0x00000000       0x48 ..\obj\startup_coide.o
 .debug_frame   0x00000048      0x2f0 ..\obj\xgpio.o
 .debug_frame   0x00000338       0x80 ..\obj\system_stm32f10x.o
 .debug_frame   0x000003b8       0x48 ..\obj\startup_stm32f10x_hd.o
 .debug_frame   0x00000400      0x3d0 ..\obj\xsysctl.o
 .debug_frame   0x000007d0      0x3c4 ..\obj\xspi.o
 .debug_frame   0x00000b94      0x53c ..\obj\xi2c.o
